target datalayout = "e-m:e-p270:32:32-p271:32:32-p272:64:64-i64:64-i128:128-f80:128-n8:16:32:64-S128"
target triple = "x86_64-pc-linux-gnu"

%struct.redisServer = type { i32, i64, ptr, ptr, ptr, i32, i32, i32, i32, i32, ptr, ptr, ptr, ptr, ptr, i32, i32, i32, i32, i64, i32, i32, i32, i32, ptr, i32, i32, [41 x i8], i32, i64, i32, i32, i32, ptr, ptr, i32, i32, i64, ptr, ptr, ptr, ptr, [2 x i32], i32, i32, i32, i32, i32, i32, [16 x ptr], i32, ptr, ptr, i32, [8 x %struct.connListener], i32, %struct.connListener, ptr, ptr, ptr, ptr, ptr, ptr, ptr, ptr, ptr, ptr, i32, ptr, i32, ptr, [3 x %struct.pause_event], [256 x i8], ptr, i64, i32, i32, [128 x i32], i32, i32, i64, i32, i32, i32, i32, i32, i64, i64, i64, i64, i64, i64, i64, i64, i64, i64, double, i64, i64, i64, i64, i64, i64, i64, i64, i64, i64, i64, i64, i64, i64, i64, i64, i64, i64, i64, i64, i64, double, i64, i64, i64, i64, i64, ptr, i64, i64, i64, %struct.malloc_stats, i64, i64, i64, i64, i64, i64, i64, i64, i64, i64, i64, i64, double, [4 x i64], i64, i64, i64, i64, [128 x i64], [128 x i64], i64, i64, [7 x %struct.anon], i64, i64, i64, i64, i64, i64, [4 x %struct.durationStats], i32, i32, i32, i32, i32, i32, i32, i32, i32, i32, i32, i32, i64, i32, i32, i32, i32, i64, i64, i32, i32, i32, i32, i32, ptr, [3 x %struct.clientBufferLimitsConfig], i32, i32, i32, ptr, i32, i32, i32, i32, i32, i32, ptr, ptr, i32, i32, i64, i64, i64, i64, i64, i32, i32, ptr, i32, i32, i64, i64, i64, i64, i64, i32, i32, i64, i32, i32, i32, i32, i32, i32, i32, i32, ptr, i32, i64, i64, i64, i64, i32, ptr, i32, ptr, i32, i32, i32, i64, i64, i64, i64, i32, i32, i32, i32, i32, i32, ptr, i32, i32, ptr, i32, i32, i32, [2 x i32], i32, %struct.redisOpArray, i32, ptr, i32, ptr, i32, i32, i32, i32, i32, i32, i32, [41 x i8], [41 x i8], i64, i64, i64, i64, i32, i32, ptr, i64, i64, %struct.replDataBuf, i64, i64, i32, i32, i32, i32, i32, i32, i32, i32, i32, i64, ptr, i64, ptr, ptr, ptr, i32, i32, ptr, ptr, i32, i32, i32, i64, i64, i64, i64, ptr, ptr, i32, ptr, i64, i32, i32, i32, i64, i32, i32, i32, i32, ptr, i32, i32, [41 x i8], i64, i32, ptr, i32, i32, i64, i64, i32, i32, i32, i32, i32, i64, [3 x i32], i32, i32, i32, [10 x i32], ptr, ptr, i32, i64, ptr, ptr, i32, i32, i32, i32, i64, i64, i64, i64, i64, i64, i64, i64, i64, i64, i32, i32, i64, i64, i32, i64, i64, i64, i64, i64, ptr, ptr, i32, ptr, i32, i32, i32, i32, i64, i64, ptr, ptr, i32, i32, i32, i32, i32, ptr, ptr, ptr, i32, i32, i32, i32, i32, i32, i32, i64, i32, i32, i64, i32, i32, i32, i32, i32, i32, i32, i64, ptr, ptr, i64, ptr, i32, %struct.aclInfo, i32, i64, i32, i32, i32, %struct.redisTLSContextConfig, ptr, ptr, ptr, ptr, ptr, i64, i32, ptr, i32, i32, i32, i64, i32, ptr }
%struct.connListener = type { [16 x i32], i32, ptr, i32, i32, ptr, ptr }
%struct.pause_event = type { i32, i64 }
%struct.malloc_stats = type { i64, i64, i64, i64, i64, i64, i64, i64, i64, i64, i64 }
%struct.anon = type { i64, i64, [16 x i64], i32 }
%struct.durationStats = type { i64, i64, i64 }
%struct.clientBufferLimitsConfig = type { i64, i64, i64 }
%struct.redisOpArray = type { ptr, i32, i32 }
%struct.replDataBuf = type { ptr, i64, i64, i64, i64 }
%struct.aclInfo = type { i64, i64, i64, i64 }
%struct.redisTLSContextConfig = type { ptr, ptr, ptr, ptr, ptr, ptr, ptr, ptr, ptr, ptr, ptr, ptr, i32, i32, i32, i32 }
%struct._clusterNode = type { i64, [40 x i8], [40 x i8], i32, i64, [2048 x i8], ptr, i32, i32, i32, ptr, ptr, i64, i64, i64, i64, i64, i64, i64, i64, i64, [46 x i8], ptr, ptr, i32, i32, i32, ptr, ptr, ptr }
%struct.clusterState = type { ptr, i64, i32, i32, ptr, ptr, ptr, [16384 x ptr], [16384 x ptr], [16384 x ptr], [40 x i8], i64, i32, i32, i32, i64, i32, i64, ptr, i64, i32, i64, i32, [11 x i64], [11 x i64], i64, i64, [2048 x i8] }

@server = external global %struct.redisServer, align 8
@.str.18 = private unnamed_addr constant [17 x i8] c"cluster_legacy.c\00", align 1
@.str.167 = private unnamed_addr constant [51 x i8] c"(n->slot_info_pairs_count + 1) < (2 * n->numslots)\00", align 1

; Function Attrs: nounwind uwtable
define dso_local void @clusterGenNodesSlotsInfo(i32 noundef %0) #0 {
  %2 = alloca i32, align 4
  %3 = alloca ptr, align 8
  %4 = alloca i32, align 4
  %5 = alloca i32, align 4
  %6 = alloca i32, align 4
  store i32 %0, ptr %2, align 4, !tbaa !46
  call void @llvm.lifetime.start.p0(i64 8, ptr %3) #16
  store ptr null, ptr %3, align 8, !tbaa !5
  call void @llvm.lifetime.start.p0(i64 4, ptr %4) #16
  store i32 -1, ptr %4, align 4, !tbaa !46
  call void @llvm.lifetime.start.p0(i64 4, ptr %5) #16
  store i32 0, ptr %5, align 4, !tbaa !46
  br label %7

7:                                                ; preds = %116, %1
  %8 = load i32, ptr %5, align 4, !tbaa !46
  %9 = icmp sle i32 %8, 16384
  br i1 %9, label %11, label %10

10:                                               ; preds = %7
  store i32 2, ptr %6, align 4
  br label %119

11:                                               ; preds = %7
  %12 = load ptr, ptr %3, align 8, !tbaa !5
  %13 = icmp eq ptr %12, null
  br i1 %13, label %14, label %26

14:                                               ; preds = %11
  %15 = load i32, ptr %5, align 4, !tbaa !46
  %16 = icmp eq i32 %15, 16384
  br i1 %16, label %17, label %18

17:                                               ; preds = %14
  store i32 2, ptr %6, align 4
  br label %119

18:                                               ; preds = %14
  %19 = load ptr, ptr getelementptr inbounds nuw (%struct.redisServer, ptr @server, i32 0, i32 385), align 8, !tbaa !57
  %20 = getelementptr inbounds nuw %struct.clusterState, ptr %19, i32 0, i32 9
  %21 = load i32, ptr %5, align 4, !tbaa !46
  %22 = sext i32 %21 to i64
  %23 = getelementptr inbounds [16384 x ptr], ptr %20, i64 0, i64 %22
  %24 = load ptr, ptr %23, align 8, !tbaa !5
  store ptr %24, ptr %3, align 8, !tbaa !5
  %25 = load i32, ptr %5, align 4, !tbaa !46
  store i32 %25, ptr %4, align 4, !tbaa !46
  br label %116

26:                                               ; preds = %11
  %27 = load i32, ptr %5, align 4, !tbaa !46
  %28 = icmp eq i32 %27, 16384
  br i1 %28, label %38, label %29

29:                                               ; preds = %26
  %30 = load ptr, ptr %3, align 8, !tbaa !5
  %31 = load ptr, ptr getelementptr inbounds nuw (%struct.redisServer, ptr @server, i32 0, i32 385), align 8, !tbaa !57
  %32 = getelementptr inbounds nuw %struct.clusterState, ptr %31, i32 0, i32 9
  %33 = load i32, ptr %5, align 4, !tbaa !46
  %34 = sext i32 %33 to i64
  %35 = getelementptr inbounds [16384 x ptr], ptr %32, i64 0, i64 %34
  %36 = load ptr, ptr %35, align 8, !tbaa !5
  %37 = icmp ne ptr %30, %36
  br i1 %37, label %38, label %115

38:                                               ; preds = %29, %26
  %39 = load ptr, ptr %3, align 8, !tbaa !5
  %40 = getelementptr inbounds nuw %struct._clusterNode, ptr %39, i32 0, i32 3
  %41 = load i32, ptr %40, align 8, !tbaa !86
  %42 = load i32, ptr %2, align 4, !tbaa !46
  %43 = and i32 %41, %42
  %44 = icmp ne i32 %43, 0
  br i1 %44, label %103, label %45

45:                                               ; preds = %38
  %46 = load ptr, ptr %3, align 8, !tbaa !5
  %47 = getelementptr inbounds nuw %struct._clusterNode, ptr %46, i32 0, i32 6
  %48 = load ptr, ptr %47, align 8, !tbaa !97
  %49 = icmp ne ptr %48, null
  br i1 %49, label %60, label %50

50:                                               ; preds = %45
  %51 = load ptr, ptr %3, align 8, !tbaa !5
  %52 = getelementptr inbounds nuw %struct._clusterNode, ptr %51, i32 0, i32 8
  %53 = load i32, ptr %52, align 4, !tbaa !99
  %54 = mul nsw i32 2, %53
  %55 = sext i32 %54 to i64
  %56 = mul i64 %55, 2
  %57 = call noalias ptr @zmalloc(i64 noundef %56) #20
  %58 = load ptr, ptr %3, align 8, !tbaa !5
  %59 = getelementptr inbounds nuw %struct._clusterNode, ptr %58, i32 0, i32 6
  store ptr %57, ptr %59, align 8, !tbaa !97
  br label %60

60:                                               ; preds = %50, %45
  %61 = load ptr, ptr %3, align 8, !tbaa !5
  %62 = getelementptr inbounds nuw %struct._clusterNode, ptr %61, i32 0, i32 7
  %63 = load i32, ptr %62, align 8, !tbaa !98
  %64 = add nsw i32 %63, 1
  %65 = load ptr, ptr %3, align 8, !tbaa !5
  %66 = getelementptr inbounds nuw %struct._clusterNode, ptr %65, i32 0, i32 8
  %67 = load i32, ptr %66, align 4, !tbaa !99
  %68 = mul nsw i32 2, %67
  %69 = icmp slt i32 %64, %68
  %70 = xor i1 %69, true
  %71 = xor i1 %70, true
  %72 = zext i1 %71 to i32
  %73 = sext i32 %72 to i64
  %74 = call i64 @llvm.expect.i64(i64 %73, i64 1)
  %75 = icmp ne i64 %74, 0
  br i1 %75, label %76, label %77

76:                                               ; preds = %60
  br label %79

77:                                               ; preds = %60
  call void @_serverAssert(ptr noundef @.str.167, ptr noundef @.str.18, i32 noundef 5449)
  call void @abort() #18
  unreachable

78:                                               ; No predecessors!
  br label %79

79:                                               ; preds = %78, %76
  %80 = load i32, ptr %4, align 4, !tbaa !46
  %81 = trunc i32 %80 to i16
  %82 = load ptr, ptr %3, align 8, !tbaa !5
  %83 = getelementptr inbounds nuw %struct._clusterNode, ptr %82, i32 0, i32 6
  %84 = load ptr, ptr %83, align 8, !tbaa !97
  %85 = load ptr, ptr %3, align 8, !tbaa !5
  %86 = getelementptr inbounds nuw %struct._clusterNode, ptr %85, i32 0, i32 7
  %87 = load i32, ptr %86, align 8, !tbaa !98
  %88 = add nsw i32 %87, 1
  store i32 %88, ptr %86, align 8, !tbaa !98
  %89 = sext i32 %87 to i64
  %90 = getelementptr inbounds i16, ptr %84, i64 %89
  store i16 %81, ptr %90, align 2, !tbaa !63
  %91 = load i32, ptr %5, align 4, !tbaa !46
  %92 = sub nsw i32 %91, 1
  %93 = trunc i32 %92 to i16
  %94 = load ptr, ptr %3, align 8, !tbaa !5
  %95 = getelementptr inbounds nuw %struct._clusterNode, ptr %94, i32 0, i32 6
  %96 = load ptr, ptr %95, align 8, !tbaa !97
  %97 = load ptr, ptr %3, align 8, !tbaa !5
  %98 = getelementptr inbounds nuw %struct._clusterNode, ptr %97, i32 0, i32 7
  %99 = load i32, ptr %98, align 8, !tbaa !98
  %100 = add nsw i32 %99, 1
  store i32 %100, ptr %98, align 8, !tbaa !98
  %101 = sext i32 %99 to i64
  %102 = getelementptr inbounds i16, ptr %96, i64 %101
  store i16 %93, ptr %102, align 2, !tbaa !63
  br label %103

103:                                              ; preds = %79, %38
  %104 = load i32, ptr %5, align 4, !tbaa !46
  %105 = icmp eq i32 %104, 16384
  br i1 %105, label %106, label %107

106:                                              ; preds = %103
  store i32 2, ptr %6, align 4
  br label %119

107:                                              ; preds = %103
  %108 = load ptr, ptr getelementptr inbounds nuw (%struct.redisServer, ptr @server, i32 0, i32 385), align 8, !tbaa !57
  %109 = getelementptr inbounds nuw %struct.clusterState, ptr %108, i32 0, i32 9
  %110 = load i32, ptr %5, align 4, !tbaa !46
  %111 = sext i32 %110 to i64
  %112 = getelementptr inbounds [16384 x ptr], ptr %109, i64 0, i64 %111
  %113 = load ptr, ptr %112, align 8, !tbaa !5
  store ptr %113, ptr %3, align 8, !tbaa !5
  %114 = load i32, ptr %5, align 4, !tbaa !46
  store i32 %114, ptr %4, align 4, !tbaa !46
  br label %115

115:                                              ; preds = %107, %29
  br label %116

116:                                              ; preds = %115, %18
  %117 = load i32, ptr %5, align 4, !tbaa !46
  %118 = add nsw i32 %117, 1
  store i32 %118, ptr %5, align 4, !tbaa !46
  br label %7, !llvm.loop !334

119:                                              ; preds = %106, %17, %10
  call void @llvm.lifetime.end.p0(i64 4, ptr %5) #16
  br label %120

120:                                              ; preds = %119
  call void @llvm.lifetime.end.p0(i64 4, ptr %4) #16
  call void @llvm.lifetime.end.p0(i64 8, ptr %3) #16
  ret void
}