; Function Attrs: nounwind uwtable
define dso_local void @clusterGenNodesSlotsInfo(i32 noundef %0) local_unnamed_addr #3 {
  br label %2

2:                                                ; preds = %1, %51
  %indvars.iv = phi i64 [ 0, %1 ], [ %indvars.iv.next, %51 ]
  %.025 = phi ptr [ null, %1 ], [ %.126, %51 ]
  %.024 = phi i32 [ -1, %1 ], [ %.1, %51 ]
  %3 = icmp eq ptr %.025, null
  %4 = trunc nuw nsw i64 %indvars.iv to i32
  %5 = icmp eq i64 %indvars.iv, 16384
  br i1 %3, label %6, label %7

6:                                                ; preds = %2
  br i1 %5, label %52, label %.sink.split

7:                                                ; preds = %2
  br i1 %5, label %13, label %8

8:                                                ; preds = %7
  %9 = load ptr, ptr getelementptr inbounds nuw (i8, ptr @server, i64 7920), align 8, !tbaa !56
  %10 = getelementptr inbounds nuw i8, ptr %9, i64 262192
  %11 = getelementptr inbounds nuw [16384 x ptr], ptr %10, i64 0, i64 %indvars.iv
  %12 = load ptr, ptr %11, align 8, !tbaa !46
  %.not = icmp eq ptr %.025, %12
  br i1 %.not, label %51, label %13

13:                                               ; preds = %8, %7
  %14 = getelementptr inbounds nuw i8, ptr %.025, i64 88
  %15 = load i32, ptr %14, align 8, !tbaa !82
  %16 = and i32 %15, %0
  %.not28 = icmp eq i32 %16, 0
  br i1 %.not28, label %17, label %46

17:                                               ; preds = %13
  %18 = getelementptr inbounds nuw i8, ptr %.025, i64 2152
  %19 = load ptr, ptr %18, align 8, !tbaa !102
  %.not29 = icmp eq ptr %19, null
  br i1 %.not29, label %20, label %27

20:                                               ; preds = %17
  %21 = getelementptr inbounds nuw i8, ptr %.025, i64 2164
  %22 = load i32, ptr %21, align 4, !tbaa !149
  %23 = shl nsw i32 %22, 1
  %24 = sext i32 %23 to i64
  %25 = shl nsw i64 %24, 1
  %26 = tail call noalias ptr @zmalloc(i64 noundef %25) #38
  store ptr %26, ptr %18, align 8, !tbaa !102
  br label %27

27:                                               ; preds = %20, %17
  %28 = phi ptr [ %26, %20 ], [ %19, %17 ]
  %29 = getelementptr inbounds nuw i8, ptr %.025, i64 2160
  %30 = load i32, ptr %29, align 8, !tbaa !103
  %31 = add nsw i32 %30, 1
  %32 = getelementptr inbounds nuw i8, ptr %.025, i64 2164
  %33 = load i32, ptr %32, align 4, !tbaa !149
  %34 = shl nsw i32 %33, 1
  %35 = icmp slt i32 %31, %34
  br i1 %35, label %37, label %36, !prof !62

36:                                               ; preds = %27
  tail call void @_serverAssert(ptr noundef nonnull @.str.167, ptr noundef nonnull @.str.18, i32 noundef 5449) #33
  tail call void @abort() #35
  unreachable

37:                                               ; preds = %27
  %38 = trunc i32 %.024 to i16
  %39 = sext i32 %30 to i64
  %40 = getelementptr inbounds i16, ptr %28, i64 %39
  store i16 %38, ptr %40, align 2, !tbaa !51
  %41 = trunc i64 %indvars.iv to i16
  %42 = add nsw i16 %41, -1
  %43 = add nsw i32 %30, 2
  store i32 %43, ptr %29, align 8, !tbaa !103
  %44 = sext i32 %31 to i64
  %45 = getelementptr inbounds i16, ptr %28, i64 %44
  store i16 %42, ptr %45, align 2, !tbaa !51
  br label %46

46:                                               ; preds = %37, %13
  br i1 %5, label %52, label %.sink.split

.sink.split:                                      ; preds = %46, %6
  %47 = load ptr, ptr getelementptr inbounds nuw (i8, ptr @server, i64 7920), align 8, !tbaa !56
  %48 = getelementptr inbounds nuw i8, ptr %47, i64 262192
  %49 = getelementptr inbounds nuw [16384 x ptr], ptr %48, i64 0, i64 %indvars.iv
  %50 = load ptr, ptr %49, align 8, !tbaa !46
  br label %51

51:                                               ; preds = %.sink.split, %8
  %.126 = phi ptr [ %.025, %8 ], [ %50, %.sink.split ]
  %.1 = phi i32 [ %.024, %8 ], [ %4, %.sink.split ]
  %indvars.iv.next = add nuw nsw i64 %indvars.iv, 1
  br label %2, !llvm.loop !300

52:                                               ; preds = %46, %6
  ret void
}